ccopy_reg
_reconstructor
p0
(cmessages
ServerConfig
p1
c__builtin__
object
p2
Ntp3
Rp4
(dp5
S'log'
p6
(lp7
g0
(cmessages
LogEntry
p8
g2
Ntp9
Rp10
(dp11
S'type'
p12
I1
sS'term'
p13
I5
sS'command'
p14
g0
(cmessages
ConfigChange
p15
g2
Ntp16
Rp17
(dp18
S'phase'
p19
I1
sS'new_config'
p20
(lp21
sg12
S'change'
p22
sS'uuid'
p23
g0
(cuuid
UUID
p24
g2
Ntp25
Rp26
(dp27
S'int'
p28
L141813983318292538179369782108550100918L
sbsS'addr'
p29
(S'127.0.0.1'
p30
I45050
tp31
sbsg23
g26
sg29
g31
sbag0
(g8
g2
Ntp32
Rp33
(dp34
g12
I1
sg13
I6
sg14
g0
(g15
g2
Ntp35
Rp36
(dp37
g19
I1
sg20
(lp38
sg12
S'change'
p39
sg23
g0
(g24
g2
Ntp40
Rp41
(dp42
g28
L275600445927225620443284206997439281078L
sbsg29
(S'127.0.0.1'
p43
I45466
tp44
sbsg23
g41
sg29
g44
sbag0
(g8
g2
Ntp45
Rp46
(dp47
g12
I0
sg13
I7
sg14
I1
sg23
g0
(g24
g2
Ntp48
Rp49
(dp50
g28
L53445522334073053729059306501716866998L
sbsg29
(S'127.0.0.1'
p51
I52278
tp52
sbag0
(g8
g2
Ntp53
Rp54
(dp55
g12
I0
sg13
I8
sg14
I2
sg23
g0
(g24
g2
Ntp56
Rp57
(dp58
g28
L166043738365725002545948341863531968438L
sbsg29
(S'127.0.0.1'
p59
I35095
tp60
sbag0
(g8
g2
Ntp61
Rp62
(dp63
g12
I0
sg13
I9
sg14
I2
sg23
g0
(g24
g2
Ntp64
Rp65
(dp66
g28
L86916936242719381855815246051655841718L
sbsg29
(S'127.0.0.1'
p67
I59610
tp68
sbag0
(g8
g2
Ntp69
Rp70
(dp71
g12
I1
sg13
I10
sg14
g0
(g15
g2
Ntp72
Rp73
(dp74
g19
I1
sg20
(lp75
I3
asg12
S'change'
p76
sg23
g0
(g24
g2
Ntp77
Rp78
(dp79
g28
L320395068326598702132162067517920540598L
sbsg29
Nsbsg23
g78
sg29
(S'127.0.0.1'
p80
I60563
tp81
sbag0
(g8
g2
Ntp82
Rp83
(dp84
g12
I2
sg13
I10
sg14
g0
(g15
g2
Ntp85
Rp86
(dp87
g19
I2
sg20
(lp88
I3
asg12
S'change'
p89
sg23
g0
(g24
g2
Ntp90
Rp91
(dp92
g28
L320395068326598702132162067517920540598L
sbsg29
Nsbsg23
g91
sg29
(S'127.0.0.1'
p93
I60563
tp94
sbasS'peers'
p95
(lp96
sS'poolsize'
p97
I95
sS'currentTerm'
p98
I10
sS'votedFor'
p99
I1
sb.